; Function Attrs: mustprogress nounwind uwtable
define dso_local noundef zeroext i1 @_ZNK4llvm11GlobalValue14isInterposableEv(ptr nocapture noundef nonnull readonly align 8 dereferenceable(48) %0) local_unnamed_addr #1 align 2 {
  %2 = getelementptr inbounds nuw i8, ptr %0, i64 32
  %3 = load i32, ptr %2, align 8
  %4 = and i32 %3, 15
  switch i32 %4, label %5 [
    i32 4, label %_ZN4llvm11GlobalValue21isInterposableLinkageENS0_12LinkageTypesE.exit.thread
    i32 2, label %_ZN4llvm11GlobalValue21isInterposableLinkageENS0_12LinkageTypesE.exit.thread
    i32 10, label %_ZN4llvm11GlobalValue21isInterposableLinkageENS0_12LinkageTypesE.exit.thread
    i32 9, label %_ZN4llvm11GlobalValue21isInterposableLinkageENS0_12LinkageTypesE.exit.thread
    i32 1, label %_ZN4llvm11GlobalValue21isInterposableLinkageENS0_12LinkageTypesE.exit
    i32 3, label %_ZN4llvm11GlobalValue21isInterposableLinkageENS0_12LinkageTypesE.exit
    i32 5, label %_ZN4llvm11GlobalValue21isInterposableLinkageENS0_12LinkageTypesE.exit
    i32 0, label %_ZN4llvm11GlobalValue21isInterposableLinkageENS0_12LinkageTypesE.exit
    i32 6, label %_ZN4llvm11GlobalValue21isInterposableLinkageENS0_12LinkageTypesE.exit
    i32 7, label %_ZN4llvm11GlobalValue21isInterposableLinkageENS0_12LinkageTypesE.exit
    i32 8, label %_ZN4llvm11GlobalValue21isInterposableLinkageENS0_12LinkageTypesE.exit
  ]

5:                                                ; preds = %1
  unreachable

_ZN4llvm11GlobalValue21isInterposableLinkageENS0_12LinkageTypesE.exit: ; preds = %1, %1, %1, %1, %1, %1, %1
  %6 = getelementptr inbounds nuw i8, ptr %0, i64 40
  %7 = load ptr, ptr %6, align 8
  %.not = icmp eq ptr %7, null
  br i1 %.not, label %_ZN4llvm11GlobalValue21isInterposableLinkageENS0_12LinkageTypesE.exit.thread, label %8

8:                                                ; preds = %_ZN4llvm11GlobalValue21isInterposableLinkageENS0_12LinkageTypesE.exit
  %9 = tail call noundef zeroext i1 @_ZNK4llvm6Module24getSemanticInterpositionEv(ptr noundef nonnull align 8 dereferenceable(857) %7) #12
  br i1 %9, label %10, label %_ZN4llvm11GlobalValue21isInterposableLinkageENS0_12LinkageTypesE.exit.thread

10:                                               ; preds = %8
  %11 = load i32, ptr %2, align 8
  %12 = and i32 %11, 16384
  %.not3 = icmp eq i32 %12, 0
  br label %_ZN4llvm11GlobalValue21isInterposableLinkageENS0_12LinkageTypesE.exit.thread

_ZN4llvm11GlobalValue21isInterposableLinkageENS0_12LinkageTypesE.exit.thread: ; preds = %1, %1, %1, %1, %_ZN4llvm11GlobalValue21isInterposableLinkageENS0_12LinkageTypesE.exit, %8, %10
  %.0 = phi i1 [ false, %8 ], [ false, %_ZN4llvm11GlobalValue21isInterposableLinkageENS0_12LinkageTypesE.exit ], [ %.not3, %10 ], [ true, %1 ], [ true, %1 ], [ true, %1 ], [ true, %1 ]
  ret i1 %.0
}